; Function Attrs: mustprogress nounwind willreturn uwtable
define dso_local void @onig_free_match_param(ptr noundef captures(address_is_null) %0) local_unnamed_addr #6 {
  %.not = icmp eq ptr %0, null
  br i1 %.not, label %6, label %2

2:                                                ; preds = %1
  %3 = getelementptr inbounds nuw i8, ptr %0, i64 56
  %4 = load ptr, ptr %3, align 8, !tbaa !41
  %.not.i = icmp eq ptr %4, null
  br i1 %.not.i, label %onig_free_match_param_content.exit, label %5

5:                                                ; preds = %2
  tail call void @free(ptr noundef nonnull %4) #30
  br label %onig_free_match_param_content.exit

onig_free_match_param_content.exit:               ; preds = %2, %5
  tail call void @free(ptr noundef nonnull %0) #30
  br label %6

6:                                                ; preds = %onig_free_match_param_content.exit, %1
  ret void
}